target datalayout = "e-m:e-p270:32:32-p271:32:32-p272:64:64-i64:64-i128:128-f80:128-n8:16:32:64-S128"
target triple = "x86_64-pc-linux-gnu"

%struct.AVFormatContext = type { ptr, ptr, ptr, ptr, ptr, i32, i32, ptr, i32, ptr, i32, ptr, ptr, i64, i64, i64, i32, i32, i32, i64, i64, ptr, i32, i32, ptr, i32, i32, i32, i32, ptr, i64, i32, i32, %struct.AVIOInterruptCB, i32, i32, i32, i32, i64, i32, i32, i32, i32, i32, i32, i32, i32, i32, i32, i32, i32, i64, i32, i32, i32, i32, i32, ptr, ptr, ptr, ptr, i32, ptr, ptr, ptr, ptr, i32, ptr, ptr, i64, ptr, ptr, ptr, i64 }
%struct.AVIOInterruptCB = type { ptr, ptr }
%struct.IcoDemuxContext = type { i32, i32, ptr }
%struct.AVStream = type { ptr, i32, i32, ptr, ptr, %struct.AVRational, i64, i64, i64, i32, i32, %struct.AVRational, ptr, %struct.AVRational, %struct.AVPacket, i32, %struct.AVRational, i32 }
%struct.AVPacket = type { ptr, i64, i64, ptr, i32, i32, i32, ptr, i32, i64, i64, ptr, ptr, %struct.AVRational }
%struct.AVRational = type { i32, i32 }
%struct.AVCodecParameters = type { i32, i32, i32, ptr, i32, ptr, i32, i32, i64, i32, i32, i32, i32, i32, i32, %struct.AVRational, %struct.AVRational, i32, i32, i32, i32, i32, i32, i32, %struct.AVChannelLayout, i32, i32, i32, i32, i32, i32 }
%struct.AVChannelLayout = type { i32, i32, %union.anon, ptr }
%union.anon = type { i64 }
%struct.IcoImage = type { i32, i32, i32 }

; Function Attrs: alwaysinline nounwind uwtable
define internal void @bytestream_put_le16(ptr noundef %0, i32 noundef %1) #5 {
  %3 = alloca ptr, align 8
  %4 = alloca i32, align 4
  store ptr %0, ptr %3, align 8, !tbaa !72
  store i32 %1, ptr %4, align 4, !tbaa !9
  %5 = load i32, ptr %4, align 4, !tbaa !9
  %6 = trunc i32 %5 to i16
  %7 = load ptr, ptr %3, align 8, !tbaa !72
  %8 = load ptr, ptr %7, align 8, !tbaa !66
  store i16 %6, ptr %8, align 1, !tbaa !15
  %9 = load ptr, ptr %3, align 8, !tbaa !72
  %10 = load ptr, ptr %9, align 8, !tbaa !66
  %11 = getelementptr inbounds i8, ptr %10, i64 2
  store ptr %11, ptr %9, align 8, !tbaa !66
  ret void
}

; Function Attrs: alwaysinline nounwind uwtable
define internal void @bytestream_put_le32(ptr noundef %0, i32 noundef %1) #5 {
  %3 = alloca ptr, align 8
  %4 = alloca i32, align 4
  store ptr %0, ptr %3, align 8, !tbaa !72
  store i32 %1, ptr %4, align 4, !tbaa !9
  %5 = load i32, ptr %4, align 4, !tbaa !9
  %6 = load ptr, ptr %3, align 8, !tbaa !72
  %7 = load ptr, ptr %6, align 8, !tbaa !66
  store i32 %5, ptr %7, align 1, !tbaa !15
  %8 = load ptr, ptr %3, align 8, !tbaa !72
  %9 = load ptr, ptr %8, align 8, !tbaa !66
  %10 = getelementptr inbounds i8, ptr %9, i64 4
  store ptr %10, ptr %8, align 8, !tbaa !66
  ret void
}

; Function Attrs: alwaysinline nounwind uwtable
define internal void @bytestream_put_byte(ptr noundef %0, i32 noundef %1) #5 {
  %3 = alloca ptr, align 8
  %4 = alloca i32, align 4
  store ptr %0, ptr %3, align 8, !tbaa !72
  store i32 %1, ptr %4, align 4, !tbaa !9
  br label %5

5:                                                ; preds = %2
  %6 = load i32, ptr %4, align 4, !tbaa !9
  %7 = trunc i32 %6 to i8
  %8 = load ptr, ptr %3, align 8, !tbaa !72
  %9 = load ptr, ptr %8, align 8, !tbaa !66
  %10 = getelementptr inbounds i8, ptr %9, i64 0
  store i8 %7, ptr %10, align 1, !tbaa !15
  br label %11

11:                                               ; preds = %5
  %12 = load ptr, ptr %3, align 8, !tbaa !72
  %13 = load ptr, ptr %12, align 8, !tbaa !66
  %14 = getelementptr inbounds i8, ptr %13, i64 1
  store ptr %14, ptr %12, align 8, !tbaa !66
  ret void
}

; Function Attrs: nounwind uwtable
define internal i32 @read_packet(ptr noundef %0, ptr noundef %1) #0 {
  %3 = alloca i32, align 4
  %4 = alloca ptr, align 8
  %5 = alloca ptr, align 8
  %6 = alloca ptr, align 8
  %7 = alloca ptr, align 8
  %8 = alloca ptr, align 8
  %9 = alloca ptr, align 8
  %10 = alloca i32, align 4
  %11 = alloca i32, align 4
  %12 = alloca ptr, align 8
  store ptr %0, ptr %4, align 8, !tbaa !18
  store ptr %1, ptr %5, align 8, !tbaa !61
  call void @llvm.lifetime.start.p0(i64 8, ptr %6) #6
  %13 = load ptr, ptr %4, align 8, !tbaa !18
  %14 = getelementptr inbounds nuw %struct.AVFormatContext, ptr %13, i32 0, i32 3
  %15 = load ptr, ptr %14, align 8, !tbaa !20
  store ptr %15, ptr %6, align 8, !tbaa !35
  call void @llvm.lifetime.start.p0(i64 8, ptr %7) #6
  call void @llvm.lifetime.start.p0(i64 8, ptr %8) #6
  %16 = load ptr, ptr %4, align 8, !tbaa !18
  %17 = getelementptr inbounds nuw %struct.AVFormatContext, ptr %16, i32 0, i32 4
  %18 = load ptr, ptr %17, align 8, !tbaa !36
  store ptr %18, ptr %8, align 8, !tbaa !37
  call void @llvm.lifetime.start.p0(i64 8, ptr %9) #6
  call void @llvm.lifetime.start.p0(i64 4, ptr %10) #6
  %19 = load ptr, ptr %6, align 8, !tbaa !35
  %20 = getelementptr inbounds nuw %struct.IcoDemuxContext, ptr %19, i32 0, i32 0
  %21 = load i32, ptr %20, align 8, !tbaa !63
  %22 = load ptr, ptr %6, align 8, !tbaa !35
  %23 = getelementptr inbounds nuw %struct.IcoDemuxContext, ptr %22, i32 0, i32 1
  %24 = load i32, ptr %23, align 4, !tbaa !38
  %25 = icmp sge i32 %21, %24
  br i1 %25, label %26, label %27

26:                                               ; preds = %2
  store i32 -541478725, ptr %3, align 4
  store i32 1, ptr %11, align 4
  br label %191

27:                                               ; preds = %2
  %28 = load ptr, ptr %4, align 8, !tbaa !18
  %29 = getelementptr inbounds nuw %struct.AVFormatContext, ptr %28, i32 0, i32 7
  %30 = load ptr, ptr %29, align 8, !tbaa !64
  %31 = getelementptr inbounds ptr, ptr %30, i64 0
  %32 = load ptr, ptr %31, align 8, !tbaa !41
  store ptr %32, ptr %9, align 8, !tbaa !41
  %33 = load ptr, ptr %6, align 8, !tbaa !35
  %34 = getelementptr inbounds nuw %struct.IcoDemuxContext, ptr %33, i32 0, i32 2
  %35 = load ptr, ptr %34, align 8, !tbaa !40
  %36 = load ptr, ptr %6, align 8, !tbaa !35
  %37 = getelementptr inbounds nuw %struct.IcoDemuxContext, ptr %36, i32 0, i32 0
  %38 = load i32, ptr %37, align 8, !tbaa !63
  %39 = sext i32 %38 to i64
  %40 = getelementptr inbounds %struct.IcoImage, ptr %35, i64 %39
  store ptr %40, ptr %7, align 8, !tbaa !35
  %41 = load ptr, ptr %8, align 8, !tbaa !37
  %42 = load ptr, ptr %7, align 8, !tbaa !35
  %43 = getelementptr inbounds nuw %struct.IcoImage, ptr %42, i32 0, i32 0
  %44 = load i32, ptr %43, align 4, !tbaa !58
  %45 = sext i32 %44 to i64
  %46 = call i64 @avio_seek(ptr noundef %41, i64 noundef %45, i32 noundef 0)
  %47 = trunc i64 %46 to i32
  store i32 %47, ptr %10, align 4, !tbaa !9
  %48 = icmp slt i32 %47, 0
  br i1 %48, label %49, label %51

49:                                               ; preds = %27
  %50 = load i32, ptr %10, align 4, !tbaa !9
  store i32 %50, ptr %3, align 4
  store i32 1, ptr %11, align 4
  br label %191

51:                                               ; preds = %27
  %52 = load ptr, ptr %4, align 8, !tbaa !18
  %53 = getelementptr inbounds nuw %struct.AVFormatContext, ptr %52, i32 0, i32 7
  %54 = load ptr, ptr %53, align 8, !tbaa !64
  %55 = load ptr, ptr %6, align 8, !tbaa !35
  %56 = getelementptr inbounds nuw %struct.IcoDemuxContext, ptr %55, i32 0, i32 0
  %57 = load i32, ptr %56, align 8, !tbaa !63
  %58 = sext i32 %57 to i64
  %59 = getelementptr inbounds ptr, ptr %54, i64 %58
  %60 = load ptr, ptr %59, align 8, !tbaa !41
  %61 = getelementptr inbounds nuw %struct.AVStream, ptr %60, i32 0, i32 3
  %62 = load ptr, ptr %61, align 8, !tbaa !43
  %63 = getelementptr inbounds nuw %struct.AVCodecParameters, ptr %62, i32 0, i32 1
  %64 = load i32, ptr %63, align 4, !tbaa !59
  %65 = icmp eq i32 %64, 61
  br i1 %65, label %66, label %77

66:                                               ; preds = %51
  %67 = load ptr, ptr %8, align 8, !tbaa !37
  %68 = load ptr, ptr %5, align 8, !tbaa !61
  %69 = load ptr, ptr %7, align 8, !tbaa !35
  %70 = getelementptr inbounds nuw %struct.IcoImage, ptr %69, i32 0, i32 1
  %71 = load i32, ptr %70, align 4, !tbaa !57
  %72 = call i32 @av_get_packet(ptr noundef %67, ptr noundef %68, i32 noundef %71)
  store i32 %72, ptr %10, align 4, !tbaa !9
  %73 = icmp slt i32 %72, 0
  br i1 %73, label %74, label %76

74:                                               ; preds = %66
  %75 = load i32, ptr %10, align 4, !tbaa !9
  store i32 %75, ptr %3, align 4
  store i32 1, ptr %11, align 4
  br label %191

76:                                               ; preds = %66
  br label %180

77:                                               ; preds = %51
  call void @llvm.lifetime.start.p0(i64 8, ptr %12) #6
  %78 = load ptr, ptr %5, align 8, !tbaa !61
  %79 = load ptr, ptr %7, align 8, !tbaa !35
  %80 = getelementptr inbounds nuw %struct.IcoImage, ptr %79, i32 0, i32 1
  %81 = load i32, ptr %80, align 4, !tbaa !57
  %82 = add nsw i32 14, %81
  %83 = call i32 @av_new_packet(ptr noundef %78, i32 noundef %82)
  store i32 %83, ptr %10, align 4, !tbaa !9
  %84 = icmp slt i32 %83, 0
  br i1 %84, label %85, label %87

85:                                               ; preds = %77
  %86 = load i32, ptr %10, align 4, !tbaa !9
  store i32 %86, ptr %3, align 4
  store i32 1, ptr %11, align 4
  br label %177

87:                                               ; preds = %77
  %88 = load ptr, ptr %5, align 8, !tbaa !61
  %89 = getelementptr inbounds nuw %struct.AVPacket, ptr %88, i32 0, i32 3
  %90 = load ptr, ptr %89, align 8, !tbaa !65
  store ptr %90, ptr %12, align 8, !tbaa !66
  call void @bytestream_put_byte(ptr noundef %12, i32 noundef 66)
  call void @bytestream_put_byte(ptr noundef %12, i32 noundef 77)
  %91 = load ptr, ptr %5, align 8, !tbaa !61
  %92 = getelementptr inbounds nuw %struct.AVPacket, ptr %91, i32 0, i32 4
  %93 = load i32, ptr %92, align 8, !tbaa !67
  call void @bytestream_put_le32(ptr noundef %12, i32 noundef %93)
  call void @bytestream_put_le16(ptr noundef %12, i32 noundef 0)
  call void @bytestream_put_le16(ptr noundef %12, i32 noundef 0)
  call void @bytestream_put_le32(ptr noundef %12, i32 noundef 0)
  %94 = load ptr, ptr %8, align 8, !tbaa !37
  %95 = load ptr, ptr %12, align 8, !tbaa !66
  %96 = load ptr, ptr %7, align 8, !tbaa !35
  %97 = getelementptr inbounds nuw %struct.IcoImage, ptr %96, i32 0, i32 1
  %98 = load i32, ptr %97, align 4, !tbaa !57
  %99 = call i32 @avio_read(ptr noundef %94, ptr noundef %95, i32 noundef %98)
  store i32 %99, ptr %10, align 4, !tbaa !9
  %100 = load ptr, ptr %7, align 8, !tbaa !35
  %101 = getelementptr inbounds nuw %struct.IcoImage, ptr %100, i32 0, i32 1
  %102 = load i32, ptr %101, align 4, !tbaa !57
  %103 = icmp ne i32 %99, %102
  br i1 %103, label %104, label %112

104:                                              ; preds = %87
  %105 = load i32, ptr %10, align 4, !tbaa !9
  %106 = icmp slt i32 %105, 0
  br i1 %106, label %107, label %109

107:                                              ; preds = %104
  %108 = load i32, ptr %10, align 4, !tbaa !9
  br label %110

109:                                              ; preds = %104
  br label %110

110:                                              ; preds = %109, %107
  %111 = phi i32 [ %108, %107 ], [ -1094995529, %109 ]
  store i32 %111, ptr %3, align 4
  store i32 1, ptr %11, align 4
  br label %177

112:                                              ; preds = %87
  %113 = load ptr, ptr %12, align 8, !tbaa !66
  %114 = getelementptr inbounds i8, ptr %113, i64 14
  %115 = load i16, ptr %114, align 1, !tbaa !15
  %116 = zext i16 %115 to i32
  %117 = load ptr, ptr %9, align 8, !tbaa !41
  %118 = getelementptr inbounds nuw %struct.AVStream, ptr %117, i32 0, i32 3
  %119 = load ptr, ptr %118, align 8, !tbaa !43
  %120 = getelementptr inbounds nuw %struct.AVCodecParameters, ptr %119, i32 0, i32 9
  store i32 %116, ptr %120, align 8, !tbaa !68
  %121 = load ptr, ptr %12, align 8, !tbaa !66
  %122 = getelementptr inbounds i8, ptr %121, i64 32
  %123 = load i32, ptr %122, align 1, !tbaa !15
  %124 = icmp ne i32 %123, 0
  br i1 %124, label %125, label %131

125:                                              ; preds = %112
  %126 = load ptr, ptr %12, align 8, !tbaa !66
  %127 = getelementptr inbounds i8, ptr %126, i64 32
  %128 = load i32, ptr %127, align 1, !tbaa !15
  %129 = load ptr, ptr %7, align 8, !tbaa !35
  %130 = getelementptr inbounds nuw %struct.IcoImage, ptr %129, i32 0, i32 2
  store i32 %128, ptr %130, align 4, !tbaa !55
  br label %131

131:                                              ; preds = %125, %112
  %132 = load ptr, ptr %9, align 8, !tbaa !41
  %133 = getelementptr inbounds nuw %struct.AVStream, ptr %132, i32 0, i32 3
  %134 = load ptr, ptr %133, align 8, !tbaa !43
  %135 = getelementptr inbounds nuw %struct.AVCodecParameters, ptr %134, i32 0, i32 9
  %136 = load i32, ptr %135, align 8, !tbaa !68
  %137 = icmp sle i32 %136, 8
  br i1 %137, label %138, label %157

138:                                              ; preds = %131
  %139 = load ptr, ptr %7, align 8, !tbaa !35
  %140 = getelementptr inbounds nuw %struct.IcoImage, ptr %139, i32 0, i32 2
  %141 = load i32, ptr %140, align 4, !tbaa !55
  %142 = icmp ne i32 %141, 0
  br i1 %142, label %157, label %143

143:                                              ; preds = %138
  %144 = load ptr, ptr %9, align 8, !tbaa !41
  %145 = getelementptr inbounds nuw %struct.AVStream, ptr %144, i32 0, i32 3
  %146 = load ptr, ptr %145, align 8, !tbaa !43
  %147 = getelementptr inbounds nuw %struct.AVCodecParameters, ptr %146, i32 0, i32 9
  %148 = load i32, ptr %147, align 8, !tbaa !68
  %149 = shl i32 1, %148
  %150 = load ptr, ptr %7, align 8, !tbaa !35
  %151 = getelementptr inbounds nuw %struct.IcoImage, ptr %150, i32 0, i32 2
  store i32 %149, ptr %151, align 4, !tbaa !55
  %152 = load ptr, ptr %7, align 8, !tbaa !35
  %153 = getelementptr inbounds nuw %struct.IcoImage, ptr %152, i32 0, i32 2
  %154 = load i32, ptr %153, align 4, !tbaa !55
  %155 = load ptr, ptr %12, align 8, !tbaa !66
  %156 = getelementptr inbounds i8, ptr %155, i64 32
  store i32 %154, ptr %156, align 1, !tbaa !15
  br label %157

157:                                              ; preds = %143, %138, %131
  %158 = load ptr, ptr %7, align 8, !tbaa !35
  %159 = getelementptr inbounds nuw %struct.IcoImage, ptr %158, i32 0, i32 2
  %160 = load i32, ptr %159, align 4, !tbaa !55
  %161 = icmp ugt i32 %160, 536870857
  br i1 %161, label %162, label %163

162:                                              ; preds = %157
  store i32 -1094995529, ptr %3, align 4
  store i32 1, ptr %11, align 4
  br label %177

163:                                              ; preds = %157
  %164 = load ptr, ptr %7, align 8, !tbaa !35
  %165 = getelementptr inbounds nuw %struct.IcoImage, ptr %164, i32 0, i32 2
  %166 = load i32, ptr %165, align 4, !tbaa !55
  %167 = mul nsw i32 %166, 4
  %168 = add nsw i32 54, %167
  %169 = load ptr, ptr %12, align 8, !tbaa !66
  %170 = getelementptr inbounds i8, ptr %169, i64 -4
  store i32 %168, ptr %170, align 1, !tbaa !15
  %171 = load ptr, ptr %12, align 8, !tbaa !66
  %172 = getelementptr inbounds i8, ptr %171, i64 8
  %173 = load i32, ptr %172, align 1, !tbaa !15
  %174 = udiv i32 %173, 2
  %175 = load ptr, ptr %12, align 8, !tbaa !66
  %176 = getelementptr inbounds i8, ptr %175, i64 8
  store i32 %174, ptr %176, align 1, !tbaa !15
  store i32 0, ptr %11, align 4
  br label %177

177:                                              ; preds = %163, %162, %110, %85
  call void @llvm.lifetime.end.p0(i64 8, ptr %12) #6
  %178 = load i32, ptr %11, align 4
  switch i32 %178, label %191 [
    i32 0, label %179
  ]

179:                                              ; preds = %177
  br label %180

180:                                              ; preds = %179, %76
  %181 = load ptr, ptr %6, align 8, !tbaa !35
  %182 = getelementptr inbounds nuw %struct.IcoDemuxContext, ptr %181, i32 0, i32 0
  %183 = load i32, ptr %182, align 8, !tbaa !63
  %184 = add nsw i32 %183, 1
  store i32 %184, ptr %182, align 8, !tbaa !63
  %185 = load ptr, ptr %5, align 8, !tbaa !61
  %186 = getelementptr inbounds nuw %struct.AVPacket, ptr %185, i32 0, i32 5
  store i32 %183, ptr %186, align 4, !tbaa !69
  %187 = load ptr, ptr %5, align 8, !tbaa !61
  %188 = getelementptr inbounds nuw %struct.AVPacket, ptr %187, i32 0, i32 6
  %189 = load i32, ptr %188, align 8, !tbaa !70
  %190 = or i32 %189, 1
  store i32 %190, ptr %188, align 8, !tbaa !70
  store i32 0, ptr %3, align 4
  store i32 1, ptr %11, align 4
  br label %191

191:                                              ; preds = %180, %177, %74, %49, %26
  call void @llvm.lifetime.end.p0(i64 4, ptr %10) #6
  call void @llvm.lifetime.end.p0(i64 8, ptr %9) #6
  call void @llvm.lifetime.end.p0(i64 8, ptr %8) #6
  call void @llvm.lifetime.end.p0(i64 8, ptr %7) #6
  call void @llvm.lifetime.end.p0(i64 8, ptr %6) #6
  %192 = load i32, ptr %3, align 4
  ret i32 %192
}