; Function Attrs: nounwind uwtable
define internal i32 @read_packet(ptr noundef readonly captures(none) %0, ptr noundef %1) #1 {
  %3 = getelementptr inbounds nuw i8, ptr %0, i64 24
  %4 = load ptr, ptr %3, align 8, !tbaa !15
  %5 = getelementptr inbounds nuw i8, ptr %0, i64 32
  %6 = load ptr, ptr %5, align 8, !tbaa !30
  %7 = load i32, ptr %4, align 8, !tbaa !51
  %8 = getelementptr inbounds nuw i8, ptr %4, i64 4
  %9 = load i32, ptr %8, align 4, !tbaa !31
  %.not = icmp slt i32 %7, %9
  br i1 %.not, label %10, label %.thread

10:                                               ; preds = %2
  %11 = getelementptr inbounds nuw i8, ptr %0, i64 48
  %12 = load ptr, ptr %11, align 8, !tbaa !52
  %13 = load ptr, ptr %12, align 8, !tbaa !53
  %14 = getelementptr inbounds nuw i8, ptr %4, i64 8
  %15 = load ptr, ptr %14, align 8, !tbaa !33
  %16 = sext i32 %7 to i64
  %17 = getelementptr inbounds %struct.IcoImage, ptr %15, i64 %16
  %18 = load i32, ptr %17, align 4, !tbaa !48
  %19 = sext i32 %18 to i64
  %20 = tail call i64 @avio_seek(ptr noundef %6, i64 noundef %19, i32 noundef 0) #4
  %21 = trunc i64 %20 to i32
  %22 = icmp slt i32 %21, 0
  br i1 %22, label %.thread, label %23

23:                                               ; preds = %10
  %24 = load ptr, ptr %11, align 8, !tbaa !52
  %25 = load i32, ptr %4, align 8, !tbaa !51
  %26 = sext i32 %25 to i64
  %27 = getelementptr inbounds ptr, ptr %24, i64 %26
  %28 = load ptr, ptr %27, align 8, !tbaa !53
  %29 = getelementptr inbounds nuw i8, ptr %28, i64 16
  %30 = load ptr, ptr %29, align 8, !tbaa !34
  %31 = getelementptr inbounds nuw i8, ptr %30, i64 4
  %32 = load i32, ptr %31, align 4, !tbaa !49
  %33 = icmp eq i32 %32, 61
  %34 = getelementptr inbounds nuw i8, ptr %17, i64 4
  %35 = load i32, ptr %34, align 4, !tbaa !46
  br i1 %33, label %36, label %39

36:                                               ; preds = %23
  %37 = tail call i32 @av_get_packet(ptr noundef %6, ptr noundef %1, i32 noundef %35) #4
  %38 = icmp slt i32 %37, 0
  br i1 %38, label %.thread, label %87

39:                                               ; preds = %23
  %40 = add nsw i32 %35, 14
  %41 = tail call i32 @av_new_packet(ptr noundef %1, i32 noundef %40) #4
  %42 = icmp slt i32 %41, 0
  br i1 %42, label %.thread, label %43

43:                                               ; preds = %39
  %44 = getelementptr inbounds nuw i8, ptr %1, i64 24
  %45 = load ptr, ptr %44, align 8, !tbaa !55
  store i8 66, ptr %45, align 1, !tbaa !12
  %46 = getelementptr inbounds nuw i8, ptr %45, i64 1
  store i8 77, ptr %46, align 1, !tbaa !12
  %47 = getelementptr inbounds nuw i8, ptr %45, i64 2
  %48 = getelementptr inbounds nuw i8, ptr %1, i64 32
  %49 = load i32, ptr %48, align 8, !tbaa !56
  store i32 %49, ptr %47, align 1, !tbaa !12
  %50 = getelementptr inbounds nuw i8, ptr %45, i64 6
  %51 = getelementptr inbounds nuw i8, ptr %45, i64 10
  %52 = getelementptr inbounds nuw i8, ptr %45, i64 14
  store i64 0, ptr %50, align 1
  %53 = load i32, ptr %34, align 4, !tbaa !46
  %54 = tail call i32 @avio_read(ptr noundef %6, ptr noundef nonnull %52, i32 noundef %53) #4
  %55 = load i32, ptr %34, align 4, !tbaa !46
  %.not48 = icmp eq i32 %54, %55
  br i1 %.not48, label %59, label %56

56:                                               ; preds = %43
  %57 = icmp slt i32 %54, 0
  %58 = select i1 %57, i32 %54, i32 -1094995529
  br label %.thread

59:                                               ; preds = %43
  %60 = getelementptr inbounds nuw i8, ptr %45, i64 28
  %61 = load i16, ptr %60, align 1, !tbaa !12
  %62 = zext i16 %61 to i32
  %63 = getelementptr inbounds nuw i8, ptr %13, i64 16
  %64 = load ptr, ptr %63, align 8, !tbaa !34
  %65 = getelementptr inbounds nuw i8, ptr %64, i64 56
  store i32 %62, ptr %65, align 8, !tbaa !57
  %66 = getelementptr inbounds nuw i8, ptr %45, i64 46
  %67 = load i32, ptr %66, align 1, !tbaa !12
  %.not49 = icmp eq i32 %67, 0
  br i1 %.not49, label %70, label %68

68:                                               ; preds = %59
  %69 = getelementptr inbounds nuw i8, ptr %17, i64 8
  store i32 %67, ptr %69, align 4, !tbaa !58
  br label %70

70:                                               ; preds = %68, %59
  %71 = icmp ult i16 %61, 9
  br i1 %71, label %72, label %77

72:                                               ; preds = %70
  %73 = getelementptr inbounds nuw i8, ptr %17, i64 8
  %74 = load i32, ptr %73, align 4, !tbaa !58
  %.not50 = icmp eq i32 %74, 0
  br i1 %.not50, label %75, label %77

75:                                               ; preds = %72
  %76 = shl nuw nsw i32 1, %62
  store i32 %76, ptr %73, align 4, !tbaa !58
  store i32 %76, ptr %66, align 1, !tbaa !12
  br label %77

77:                                               ; preds = %75, %72, %70
  %78 = getelementptr inbounds nuw i8, ptr %17, i64 8
  %79 = load i32, ptr %78, align 4, !tbaa !58
  %80 = icmp ugt i32 %79, 536870857
  br i1 %80, label %.thread, label %81

81:                                               ; preds = %77
  %82 = shl nuw nsw i32 %79, 2
  %83 = add nuw nsw i32 %82, 54
  store i32 %83, ptr %51, align 1, !tbaa !12
  %84 = getelementptr inbounds nuw i8, ptr %45, i64 22
  %85 = load i32, ptr %84, align 1, !tbaa !12
  %86 = lshr i32 %85, 1
  store i32 %86, ptr %84, align 1, !tbaa !12
  br label %87

87:                                               ; preds = %81, %36
  %88 = load i32, ptr %4, align 8, !tbaa !51
  %89 = add nsw i32 %88, 1
  store i32 %89, ptr %4, align 8, !tbaa !51
  %90 = getelementptr inbounds nuw i8, ptr %1, i64 36
  store i32 %88, ptr %90, align 4, !tbaa !59
  %91 = getelementptr inbounds nuw i8, ptr %1, i64 40
  %92 = load i32, ptr %91, align 8, !tbaa !60
  %93 = or i32 %92, 1
  store i32 %93, ptr %91, align 8, !tbaa !60
  br label %.thread

.thread:                                          ; preds = %77, %39, %56, %36, %10, %2, %87
  %.039 = phi i32 [ 0, %87 ], [ -541478725, %2 ], [ %21, %10 ], [ %37, %36 ], [ -1094995529, %77 ], [ %41, %39 ], [ %58, %56 ]
  ret i32 %.039
}